target datalayout = "e-m:e-p270:32:32-p271:32:32-p272:64:64-i64:64-i128:128-f80:128-n8:16:32:64-S128"
target triple = "x86_64-pc-linux-gnu"

%"class.marisa::grimoire::trie::LoudsTrie" = type { %"class.marisa::grimoire::vector::BitVector", %"class.marisa::grimoire::vector::BitVector", %"class.marisa::grimoire::vector::BitVector", %"class.marisa::grimoire::vector::Vector.4", %"class.marisa::grimoire::vector::FlatVector", %"class.marisa::grimoire::trie::Tail", %"class.marisa::scoped_ptr", %"class.marisa::grimoire::vector::Vector.8", i64, i64, %"class.marisa::grimoire::trie::Config", %"class.marisa::grimoire::io::Mapper" }
%"class.marisa::grimoire::vector::BitVector" = type { %"class.marisa::grimoire::vector::Vector", i64, i64, %"class.marisa::grimoire::vector::Vector.0", %"class.marisa::grimoire::vector::Vector.2", %"class.marisa::grimoire::vector::Vector.2" }
%"class.marisa::grimoire::vector::Vector" = type <{ %"class.marisa::scoped_array", ptr, ptr, i64, i64, i8, [7 x i8] }>
%"class.marisa::scoped_array" = type { ptr }
%"class.marisa::grimoire::vector::Vector.0" = type <{ %"class.marisa::scoped_array", ptr, ptr, i64, i64, i8, [7 x i8] }>
%"class.marisa::grimoire::vector::Vector.2" = type <{ %"class.marisa::scoped_array", ptr, ptr, i64, i64, i8, [7 x i8] }>
%"class.marisa::grimoire::vector::Vector.4" = type <{ %"class.marisa::scoped_array", ptr, ptr, i64, i64, i8, [7 x i8] }>
%"class.marisa::grimoire::vector::FlatVector" = type { %"class.marisa::grimoire::vector::Vector", i64, i32, i64 }
%"class.marisa::grimoire::trie::Tail" = type { %"class.marisa::grimoire::vector::Vector.6", %"class.marisa::grimoire::vector::BitVector" }
%"class.marisa::grimoire::vector::Vector.6" = type <{ %"class.marisa::scoped_array", ptr, ptr, i64, i64, i8, [7 x i8] }>
%"class.marisa::scoped_ptr" = type { ptr }
%"class.marisa::grimoire::vector::Vector.8" = type <{ %"class.marisa::scoped_array", ptr, ptr, i64, i64, i8, [7 x i8] }>
%"class.marisa::grimoire::trie::Config" = type <{ i64, i32, i32, i32, [4 x i8] }>
%"class.marisa::grimoire::io::Mapper" = type <{ ptr, ptr, i64, i64, i32, [4 x i8] }>
%"class.marisa::grimoire::trie::Header" = type { i8 }

; Function Attrs: mustprogress nounwind uwtable
define linkonce_odr noundef i64 @_ZNK6marisa8grimoire6vector6VectorIcE10total_sizeEv(ptr noundef nonnull align 8 dereferenceable(41) %0) #5 comdat align 2 {
  %2 = alloca ptr, align 8
  store ptr %0, ptr %2, align 8
  %3 = load ptr, ptr %2, align 8
  %4 = getelementptr inbounds %"class.marisa::grimoire::vector::Vector.6", ptr %3, i32 0, i32 3
  %5 = load i64, ptr %4, align 8
  %6 = mul i64 1, %5
  ret i64 %6
}

; Function Attrs: mustprogress nounwind uwtable
define linkonce_odr noundef i64 @_ZNK6marisa8grimoire6vector6VectorIjE10total_sizeEv(ptr noundef nonnull align 8 dereferenceable(41) %0) #5 comdat align 2 {
  %2 = alloca ptr, align 8
  store ptr %0, ptr %2, align 8
  %3 = load ptr, ptr %2, align 8
  %4 = getelementptr inbounds %"class.marisa::grimoire::vector::Vector.2", ptr %3, i32 0, i32 3
  %5 = load i64, ptr %4, align 8
  %6 = mul i64 4, %5
  ret i64 %6
}

; Function Attrs: mustprogress nounwind uwtable
define linkonce_odr noundef i64 @_ZNK6marisa8grimoire6vector6VectorINS1_9RankIndexEE10total_sizeEv(ptr noundef nonnull align 8 dereferenceable(41) %0) #5 comdat align 2 {
  %2 = alloca ptr, align 8
  store ptr %0, ptr %2, align 8
  %3 = load ptr, ptr %2, align 8
  %4 = getelementptr inbounds %"class.marisa::grimoire::vector::Vector.0", ptr %3, i32 0, i32 3
  %5 = load i64, ptr %4, align 8
  %6 = mul i64 12, %5
  ret i64 %6
}

; Function Attrs: mustprogress nounwind uwtable
define linkonce_odr noundef i64 @_ZNK6marisa8grimoire6vector6VectorImE10total_sizeEv(ptr noundef nonnull align 8 dereferenceable(41) %0) #5 comdat align 2 {
  %2 = alloca ptr, align 8
  store ptr %0, ptr %2, align 8
  %3 = load ptr, ptr %2, align 8
  %4 = getelementptr inbounds %"class.marisa::grimoire::vector::Vector", ptr %3, i32 0, i32 3
  %5 = load i64, ptr %4, align 8
  %6 = mul i64 8, %5
  ret i64 %6
}

; Function Attrs: mustprogress nounwind uwtable
define linkonce_odr noundef i64 @_ZNK6marisa8grimoire6vector6VectorINS0_4trie5CacheEE10total_sizeEv(ptr noundef nonnull align 8 dereferenceable(41) %0) #5 comdat align 2 {
  %2 = alloca ptr, align 8
  store ptr %0, ptr %2, align 8
  %3 = load ptr, ptr %2, align 8
  %4 = getelementptr inbounds %"class.marisa::grimoire::vector::Vector.8", ptr %3, i32 0, i32 3
  %5 = load i64, ptr %4, align 8
  %6 = mul i64 12, %5
  ret i64 %6
}

; Function Attrs: mustprogress nounwind uwtable
define linkonce_odr noundef i64 @_ZNK6marisa8grimoire6vector6VectorIcE7io_sizeEv(ptr noundef nonnull align 8 dereferenceable(41) %0) #5 comdat align 2 {
  %2 = alloca ptr, align 8
  store ptr %0, ptr %2, align 8
  %3 = load ptr, ptr %2, align 8
  %4 = call noundef i64 @_ZNK6marisa8grimoire6vector6VectorIcE10total_sizeEv(ptr noundef nonnull align 8 dereferenceable(41) %3)
  %5 = add i64 %4, 7
  %6 = and i64 %5, -8
  %7 = add i64 8, %6
  ret i64 %7
}

; Function Attrs: mustprogress nounwind uwtable
define linkonce_odr noundef i64 @_ZNK6marisa8grimoire6vector6VectorIhE10total_sizeEv(ptr noundef nonnull align 8 dereferenceable(41) %0) #5 comdat align 2 {
  %2 = alloca ptr, align 8
  store ptr %0, ptr %2, align 8
  %3 = load ptr, ptr %2, align 8
  %4 = getelementptr inbounds %"class.marisa::grimoire::vector::Vector.4", ptr %3, i32 0, i32 3
  %5 = load i64, ptr %4, align 8
  %6 = mul i64 1, %5
  ret i64 %6
}

; Function Attrs: mustprogress nounwind uwtable
define linkonce_odr noundef i64 @_ZNK6marisa8grimoire6vector6VectorIjE7io_sizeEv(ptr noundef nonnull align 8 dereferenceable(41) %0) #5 comdat align 2 {
  %2 = alloca ptr, align 8
  store ptr %0, ptr %2, align 8
  %3 = load ptr, ptr %2, align 8
  %4 = call noundef i64 @_ZNK6marisa8grimoire6vector6VectorIjE10total_sizeEv(ptr noundef nonnull align 8 dereferenceable(41) %3)
  %5 = add i64 %4, 7
  %6 = and i64 %5, -8
  %7 = add i64 8, %6
  ret i64 %7
}

; Function Attrs: mustprogress nounwind uwtable
define linkonce_odr noundef i64 @_ZNK6marisa8grimoire6vector6VectorINS1_9RankIndexEE7io_sizeEv(ptr noundef nonnull align 8 dereferenceable(41) %0) #5 comdat align 2 {
  %2 = alloca ptr, align 8
  store ptr %0, ptr %2, align 8
  %3 = load ptr, ptr %2, align 8
  %4 = call noundef i64 @_ZNK6marisa8grimoire6vector6VectorINS1_9RankIndexEE10total_sizeEv(ptr noundef nonnull align 8 dereferenceable(41) %3)
  %5 = add i64 %4, 7
  %6 = and i64 %5, -8
  %7 = add i64 8, %6
  ret i64 %7
}

; Function Attrs: mustprogress nounwind uwtable
define linkonce_odr noundef i64 @_ZNK6marisa8grimoire6vector6VectorImE7io_sizeEv(ptr noundef nonnull align 8 dereferenceable(41) %0) #5 comdat align 2 {
  %2 = alloca ptr, align 8
  store ptr %0, ptr %2, align 8
  %3 = load ptr, ptr %2, align 8
  %4 = call noundef i64 @_ZNK6marisa8grimoire6vector6VectorImE10total_sizeEv(ptr noundef nonnull align 8 dereferenceable(41) %3)
  %5 = add i64 %4, 7
  %6 = and i64 %5, -8
  %7 = add i64 8, %6
  ret i64 %7
}

; Function Attrs: mustprogress nounwind uwtable
define linkonce_odr noundef i64 @_ZNK6marisa8grimoire6vector6VectorINS0_4trie5CacheEE7io_sizeEv(ptr noundef nonnull align 8 dereferenceable(41) %0) #5 comdat align 2 {
  %2 = alloca ptr, align 8
  store ptr %0, ptr %2, align 8
  %3 = load ptr, ptr %2, align 8
  %4 = call noundef i64 @_ZNK6marisa8grimoire6vector6VectorINS0_4trie5CacheEE10total_sizeEv(ptr noundef nonnull align 8 dereferenceable(41) %3)
  %5 = add i64 %4, 7
  %6 = and i64 %5, -8
  %7 = add i64 8, %6
  ret i64 %7
}

; Function Attrs: mustprogress nounwind uwtable
define linkonce_odr noundef ptr @_ZNK6marisa10scoped_ptrINS_8grimoire4trie9LoudsTrieEEptEv(ptr noundef nonnull align 8 dereferenceable(8) %0) #5 comdat align 2 {
  %2 = alloca ptr, align 8
  store ptr %0, ptr %2, align 8
  %3 = load ptr, ptr %2, align 8
  %4 = getelementptr inbounds %"class.marisa::scoped_ptr", ptr %3, i32 0, i32 0
  %5 = load ptr, ptr %4, align 8
  ret ptr %5
}

; Function Attrs: mustprogress nounwind uwtable
define linkonce_odr noundef ptr @_ZNK6marisa10scoped_ptrINS_8grimoire4trie9LoudsTrieEE3getEv(ptr noundef nonnull align 8 dereferenceable(8) %0) #5 comdat align 2 {
  %2 = alloca ptr, align 8
  store ptr %0, ptr %2, align 8
  %3 = load ptr, ptr %2, align 8
  %4 = getelementptr inbounds %"class.marisa::scoped_ptr", ptr %3, i32 0, i32 0
  %5 = load ptr, ptr %4, align 8
  ret ptr %5
}

; Function Attrs: mustprogress uwtable
define linkonce_odr noundef i64 @_ZNK6marisa8grimoire4trie4Tail7io_sizeEv(ptr noundef nonnull align 8 dereferenceable(256) %0) #4 comdat align 2 {
  %2 = alloca ptr, align 8
  store ptr %0, ptr %2, align 8
  %3 = load ptr, ptr %2, align 8
  %4 = getelementptr inbounds %"class.marisa::grimoire::trie::Tail", ptr %3, i32 0, i32 0
  %5 = call noundef i64 @_ZNK6marisa8grimoire6vector6VectorIcE7io_sizeEv(ptr noundef nonnull align 8 dereferenceable(41) %4)
  %6 = getelementptr inbounds %"class.marisa::grimoire::trie::Tail", ptr %3, i32 0, i32 1
  %7 = call noundef i64 @_ZNK6marisa8grimoire6vector9BitVector7io_sizeEv(ptr noundef nonnull align 8 dereferenceable(208) %6)
  %8 = add i64 %5, %7
  ret i64 %8
}

; Function Attrs: mustprogress nounwind uwtable
define linkonce_odr noundef i64 @_ZNK6marisa8grimoire6vector10FlatVector7io_sizeEv(ptr noundef nonnull align 8 dereferenceable(72) %0) #5 comdat align 2 {
  %2 = alloca ptr, align 8
  store ptr %0, ptr %2, align 8
  %3 = load ptr, ptr %2, align 8
  %4 = getelementptr inbounds %"class.marisa::grimoire::vector::FlatVector", ptr %3, i32 0, i32 0
  %5 = call noundef i64 @_ZNK6marisa8grimoire6vector6VectorImE7io_sizeEv(ptr noundef nonnull align 8 dereferenceable(41) %4)
  %6 = add i64 %5, 8
  %7 = add i64 %6, 8
  ret i64 %7
}

; Function Attrs: mustprogress nounwind uwtable
define linkonce_odr noundef i64 @_ZNK6marisa8grimoire6vector6VectorIhE7io_sizeEv(ptr noundef nonnull align 8 dereferenceable(41) %0) #5 comdat align 2 {
  %2 = alloca ptr, align 8
  store ptr %0, ptr %2, align 8
  %3 = load ptr, ptr %2, align 8
  %4 = call noundef i64 @_ZNK6marisa8grimoire6vector6VectorIhE10total_sizeEv(ptr noundef nonnull align 8 dereferenceable(41) %3)
  %5 = add i64 %4, 7
  %6 = and i64 %5, -8
  %7 = add i64 8, %6
  ret i64 %7
}

; Function Attrs: mustprogress uwtable
define linkonce_odr noundef i64 @_ZNK6marisa8grimoire6vector9BitVector7io_sizeEv(ptr noundef nonnull align 8 dereferenceable(208) %0) #4 comdat align 2 {
  %2 = alloca ptr, align 8
  store ptr %0, ptr %2, align 8
  %3 = load ptr, ptr %2, align 8
  %4 = getelementptr inbounds %"class.marisa::grimoire::vector::BitVector", ptr %3, i32 0, i32 0
  %5 = call noundef i64 @_ZNK6marisa8grimoire6vector6VectorImE7io_sizeEv(ptr noundef nonnull align 8 dereferenceable(41) %4)
  %6 = add i64 %5, 8
  %7 = getelementptr inbounds %"class.marisa::grimoire::vector::BitVector", ptr %3, i32 0, i32 3
  %8 = call noundef i64 @_ZNK6marisa8grimoire6vector6VectorINS1_9RankIndexEE7io_sizeEv(ptr noundef nonnull align 8 dereferenceable(41) %7)
  %9 = add i64 %6, %8
  %10 = getelementptr inbounds %"class.marisa::grimoire::vector::BitVector", ptr %3, i32 0, i32 4
  %11 = call noundef i64 @_ZNK6marisa8grimoire6vector6VectorIjE7io_sizeEv(ptr noundef nonnull align 8 dereferenceable(41) %10)
  %12 = add i64 %9, %11
  %13 = getelementptr inbounds %"class.marisa::grimoire::vector::BitVector", ptr %3, i32 0, i32 5
  %14 = call noundef i64 @_ZNK6marisa8grimoire6vector6VectorIjE7io_sizeEv(ptr noundef nonnull align 8 dereferenceable(41) %13)
  %15 = add i64 %12, %14
  ret i64 %15
}

; Function Attrs: mustprogress nounwind uwtable
define linkonce_odr noundef i64 @_ZNK6marisa8grimoire4trie6Header7io_sizeEv(ptr noundef nonnull align 1 dereferenceable(1) %0) #5 comdat align 2 {
  %2 = alloca ptr, align 8
  store ptr %0, ptr %2, align 8
  ret i64 16
}

; Function Attrs: mustprogress nounwind uwtable
define linkonce_odr void @_ZN6marisa8grimoire4trie6HeaderC2Ev(ptr noundef nonnull align 1 dereferenceable(1) %0) unnamed_addr #5 comdat align 2 {
  %2 = alloca ptr, align 8
  store ptr %0, ptr %2, align 8
  ret void
}

; Function Attrs: mustprogress uwtable
define noundef i64 @_ZNK6marisa8grimoire4trie9LoudsTrie7io_sizeEv(ptr noundef nonnull align 8 dereferenceable(1136) %0) #4 align 2 {
  %2 = alloca ptr, align 8
  %3 = alloca %"class.marisa::grimoire::trie::Header", align 1
  %4 = alloca %"class.marisa::grimoire::trie::Header", align 1
  store ptr %0, ptr %2, align 8
  %5 = load ptr, ptr %2, align 8
  call void @_ZN6marisa8grimoire4trie6HeaderC2Ev(ptr noundef nonnull align 1 dereferenceable(1) %3)
  %6 = call noundef i64 @_ZNK6marisa8grimoire4trie6Header7io_sizeEv(ptr noundef nonnull align 1 dereferenceable(1) %3)
  %7 = getelementptr inbounds %"class.marisa::grimoire::trie::LoudsTrie", ptr %5, i32 0, i32 0
  %8 = call noundef i64 @_ZNK6marisa8grimoire6vector9BitVector7io_sizeEv(ptr noundef nonnull align 8 dereferenceable(208) %7)
  %9 = add i64 %6, %8
  %10 = getelementptr inbounds %"class.marisa::grimoire::trie::LoudsTrie", ptr %5, i32 0, i32 1
  %11 = call noundef i64 @_ZNK6marisa8grimoire6vector9BitVector7io_sizeEv(ptr noundef nonnull align 8 dereferenceable(208) %10)
  %12 = add i64 %9, %11
  %13 = getelementptr inbounds %"class.marisa::grimoire::trie::LoudsTrie", ptr %5, i32 0, i32 2
  %14 = call noundef i64 @_ZNK6marisa8grimoire6vector9BitVector7io_sizeEv(ptr noundef nonnull align 8 dereferenceable(208) %13)
  %15 = add i64 %12, %14
  %16 = getelementptr inbounds %"class.marisa::grimoire::trie::LoudsTrie", ptr %5, i32 0, i32 3
  %17 = call noundef i64 @_ZNK6marisa8grimoire6vector6VectorIhE7io_sizeEv(ptr noundef nonnull align 8 dereferenceable(41) %16)
  %18 = add i64 %15, %17
  %19 = getelementptr inbounds %"class.marisa::grimoire::trie::LoudsTrie", ptr %5, i32 0, i32 4
  %20 = call noundef i64 @_ZNK6marisa8grimoire6vector10FlatVector7io_sizeEv(ptr noundef nonnull align 8 dereferenceable(72) %19)
  %21 = add i64 %18, %20
  %22 = getelementptr inbounds %"class.marisa::grimoire::trie::LoudsTrie", ptr %5, i32 0, i32 5
  %23 = call noundef i64 @_ZNK6marisa8grimoire4trie4Tail7io_sizeEv(ptr noundef nonnull align 8 dereferenceable(256) %22)
  %24 = add i64 %21, %23
  %25 = getelementptr inbounds %"class.marisa::grimoire::trie::LoudsTrie", ptr %5, i32 0, i32 6
  %26 = call noundef ptr @_ZNK6marisa10scoped_ptrINS_8grimoire4trie9LoudsTrieEE3getEv(ptr noundef nonnull align 8 dereferenceable(8) %25)
  %27 = icmp ne ptr %26, null
  br i1 %27, label %28, label %34

28:                                               ; preds = %1
  %29 = getelementptr inbounds %"class.marisa::grimoire::trie::LoudsTrie", ptr %5, i32 0, i32 6
  %30 = call noundef ptr @_ZNK6marisa10scoped_ptrINS_8grimoire4trie9LoudsTrieEEptEv(ptr noundef nonnull align 8 dereferenceable(8) %29)
  %31 = call noundef i64 @_ZNK6marisa8grimoire4trie9LoudsTrie7io_sizeEv(ptr noundef nonnull align 8 dereferenceable(1136) %30)
  call void @_ZN6marisa8grimoire4trie6HeaderC2Ev(ptr noundef nonnull align 1 dereferenceable(1) %4)
  %32 = call noundef i64 @_ZNK6marisa8grimoire4trie6Header7io_sizeEv(ptr noundef nonnull align 1 dereferenceable(1) %4)
  %33 = sub i64 %31, %32
  br label %35

34:                                               ; preds = %1
  br label %35

35:                                               ; preds = %34, %28
  %36 = phi i64 [ %33, %28 ], [ 0, %34 ]
  %37 = add i64 %24, %36
  %38 = getelementptr inbounds %"class.marisa::grimoire::trie::LoudsTrie", ptr %5, i32 0, i32 7
  %39 = call noundef i64 @_ZNK6marisa8grimoire6vector6VectorINS0_4trie5CacheEE7io_sizeEv(ptr noundef nonnull align 8 dereferenceable(41) %38)
  %40 = add i64 %37, %39
  %41 = add i64 %40, 8
  ret i64 %41
}