; Function Attrs: mustprogress nofree nosync nounwind willreturn memory(read, inaccessiblemem: none) uwtable
define noundef i64 @_ZNK6marisa8grimoire4trie9LoudsTrie7io_sizeEv(ptr nocapture noundef nonnull readonly align 8 dereferenceable(1136) %0) local_unnamed_addr #5 align 2 {
  %2 = getelementptr inbounds i8, ptr %0, i64 24
  %3 = load i64, ptr %2, align 8
  %4 = getelementptr inbounds i8, ptr %0, i64 88
  %5 = load i64, ptr %4, align 8
  %6 = getelementptr inbounds i8, ptr %0, i64 136
  %7 = load i64, ptr %6, align 8
  %8 = getelementptr inbounds i8, ptr %0, i64 184
  %9 = load i64, ptr %8, align 8
  %10 = getelementptr inbounds i8, ptr %0, i64 232
  %11 = load i64, ptr %10, align 8
  %12 = getelementptr inbounds i8, ptr %0, i64 296
  %13 = load i64, ptr %12, align 8
  %14 = getelementptr inbounds i8, ptr %0, i64 344
  %15 = load i64, ptr %14, align 8
  %16 = getelementptr inbounds i8, ptr %0, i64 392
  %17 = load i64, ptr %16, align 8
  %18 = getelementptr inbounds i8, ptr %0, i64 440
  %19 = load i64, ptr %18, align 8
  %20 = getelementptr inbounds i8, ptr %0, i64 504
  %21 = load i64, ptr %20, align 8
  %22 = getelementptr inbounds i8, ptr %0, i64 552
  %23 = load i64, ptr %22, align 8
  %24 = getelementptr inbounds i8, ptr %0, i64 600
  %25 = load i64, ptr %24, align 8
  %26 = getelementptr inbounds i8, ptr %0, i64 648
  %27 = load i64, ptr %26, align 8
  %28 = getelementptr inbounds i8, ptr %0, i64 696
  %29 = load i64, ptr %28, align 8
  %30 = getelementptr inbounds i8, ptr %0, i64 768
  %31 = load i64, ptr %30, align 8
  %32 = getelementptr inbounds i8, ptr %0, i64 816
  %33 = load i64, ptr %32, align 8
  %34 = getelementptr inbounds i8, ptr %0, i64 880
  %35 = load i64, ptr %34, align 8
  %36 = getelementptr inbounds i8, ptr %0, i64 928
  %37 = load i64, ptr %36, align 8
  %38 = getelementptr inbounds i8, ptr %0, i64 976
  %39 = load i64, ptr %38, align 8
  %40 = getelementptr inbounds i8, ptr %0, i64 1000
  %41 = load ptr, ptr %40, align 8
  %.not = icmp eq ptr %41, null
  br i1 %.not, label %45, label %42

42:                                               ; preds = %1
  %43 = tail call noundef i64 @_ZNK6marisa8grimoire4trie9LoudsTrie7io_sizeEv(ptr noundef nonnull align 8 dereferenceable(1136) %41)
  %44 = add i64 %43, -16
  br label %45

45:                                               ; preds = %1, %42
  %46 = phi i64 [ %44, %42 ], [ 0, %1 ]
  %47 = add i64 %31, 7
  %48 = and i64 %47, -8
  %49 = mul i64 %35, 12
  %50 = add i64 %49, 7
  %51 = and i64 %50, -8
  %52 = shl i64 %37, 2
  %53 = add i64 %52, 7
  %54 = and i64 %53, -8
  %55 = shl i64 %39, 2
  %56 = add i64 %55, 7
  %57 = and i64 %56, -8
  %58 = add i64 %27, 7
  %59 = and i64 %58, -8
  %60 = mul i64 %21, 12
  %61 = add i64 %60, 7
  %62 = and i64 %61, -8
  %63 = shl i64 %23, 2
  %64 = add i64 %63, 7
  %65 = and i64 %64, -8
  %66 = shl i64 %25, 2
  %67 = add i64 %66, 7
  %68 = and i64 %67, -8
  %69 = mul i64 %13, 12
  %70 = add i64 %69, 7
  %71 = and i64 %70, -8
  %72 = shl i64 %15, 2
  %73 = add i64 %72, 7
  %74 = and i64 %73, -8
  %75 = shl i64 %17, 2
  %76 = add i64 %75, 7
  %77 = and i64 %76, -8
  %78 = mul i64 %5, 12
  %79 = add i64 %78, 7
  %80 = and i64 %79, -8
  %81 = shl i64 %7, 2
  %82 = add i64 %81, 7
  %83 = and i64 %82, -8
  %84 = shl i64 %9, 2
  %85 = add i64 %84, 7
  %86 = and i64 %85, -8
  %87 = getelementptr inbounds i8, ptr %0, i64 1032
  %88 = load i64, ptr %87, align 8
  %89 = mul i64 %88, 12
  %90 = add i64 %89, 7
  %91 = and i64 %90, -8
  %reass.add = add i64 %11, %3
  %reass.add1 = add i64 %reass.add, %19
  %reass.add2 = add i64 %reass.add1, %29
  %reass.add3 = add i64 %reass.add2, %33
  %reass.mul = shl i64 %reass.add3, 3
  %92 = add i64 %80, 232
  %93 = add i64 %92, %83
  %94 = add i64 %93, %86
  %95 = add i64 %94, %71
  %96 = add i64 %95, %74
  %97 = add i64 %96, %77
  %98 = add i64 %97, %62
  %99 = add i64 %98, %65
  %100 = add i64 %99, %59
  %101 = add i64 %100, %68
  %102 = add i64 %101, %48
  %103 = add i64 %102, %51
  %104 = add i64 %103, %54
  %105 = add i64 %104, %reass.mul
  %106 = add i64 %105, %57
  %107 = add i64 %106, %46
  %108 = add i64 %107, %91
  ret i64 %108
}